target datalayout = "e-m:e-p270:32:32-p271:32:32-p272:64:64-i64:64-i128:128-f80:128-n8:16:32:64-S128"
target triple = "x86_64-pc-linux-gnu"

%"class.std::__cxx11::basic_string" = type { %"struct.std::__cxx11::basic_string<char>::_Alloc_hider", i64, %union.anon }
%"struct.std::__cxx11::basic_string<char>::_Alloc_hider" = type { ptr }
%union.anon = type { i64, [8 x i8] }
%"struct.Luau::ExplicitFunctionAnnotationRecommended" = type { %"class.std::vector.89", ptr }
%"class.std::vector.89" = type { %"struct.std::_Vector_base.90" }
%"struct.std::_Vector_base.90" = type { %"struct.std::_Vector_base<std::pair<std::__cxx11::basic_string<char>, const Luau::Type *>, std::allocator<std::pair<std::__cxx11::basic_string<char>, const Luau::Type *>>>::_Vector_impl" }
%"struct.std::_Vector_base<std::pair<std::__cxx11::basic_string<char>, const Luau::Type *>, std::allocator<std::pair<std::__cxx11::basic_string<char>, const Luau::Type *>>>::_Vector_impl" = type { %"struct.std::_Vector_base<std::pair<std::__cxx11::basic_string<char>, const Luau::Type *>, std::allocator<std::pair<std::__cxx11::basic_string<char>, const Luau::Type *>>>::_Vector_impl_data" }
%"struct.std::_Vector_base<std::pair<std::__cxx11::basic_string<char>, const Luau::Type *>, std::allocator<std::pair<std::__cxx11::basic_string<char>, const Luau::Type *>>>::_Vector_impl_data" = type { ptr, ptr, ptr }
%class.anon = type { ptr, ptr }
%"struct.std::pair.262" = type { %"class.std::__cxx11::basic_string", ptr }
%class.anon.359 = type { ptr, ptr }
%class.anon.360 = type { ptr, ptr }
%"class.__gnu_cxx::__normal_iterator.361" = type { ptr }

; Function Attrs: mustprogress nounwind uwtable
define linkonce_odr dso_local noundef nonnull align 8 dereferenceable(8) ptr @_ZNSt10__pair_getILm1EE5__getINSt7__cxx1112basic_stringIcSt11char_traitsIcESaIcEEEPKN4Luau4TypeEEERT0_RSt4pairIT_SC_E(ptr noundef nonnull align 8 dereferenceable(40) %0) #2 comdat align 2 {
  %2 = alloca ptr, align 8
  store ptr %0, ptr %2, align 8, !tbaa !852
  %3 = load ptr, ptr %2, align 8, !tbaa !852
  %4 = getelementptr inbounds nuw %"struct.std::pair.262", ptr %3, i32 0, i32 1
  ret ptr %4
}

; Function Attrs: mustprogress nounwind uwtable
define linkonce_odr dso_local noundef nonnull align 8 dereferenceable(32) ptr @_ZNSt10__pair_getILm0EE5__getINSt7__cxx1112basic_stringIcSt11char_traitsIcESaIcEEEPKN4Luau4TypeEEERT_RSt4pairISC_T0_E(ptr noundef nonnull align 8 dereferenceable(40) %0) #2 comdat align 2 {
  %2 = alloca ptr, align 8
  store ptr %0, ptr %2, align 8, !tbaa !852
  %3 = load ptr, ptr %2, align 8, !tbaa !852
  %4 = getelementptr inbounds nuw %"struct.std::pair.262", ptr %3, i32 0, i32 0
  ret ptr %4
}

; Function Attrs: mustprogress nounwind uwtable
define linkonce_odr dso_local noundef nonnull align 8 dereferenceable(8) ptr @_ZNK9__gnu_cxx17__normal_iteratorIPSt4pairINSt7__cxx1112basic_stringIcSt11char_traitsIcESaIcEEEPKN4Luau4TypeEESt6vectorISC_SaISC_EEE4baseEv(ptr noundef nonnull align 8 dereferenceable(8) %0) #2 comdat align 2 {
  %2 = alloca ptr, align 8
  store ptr %0, ptr %2, align 8, !tbaa !1012
  %3 = load ptr, ptr %2, align 8
  %4 = getelementptr inbounds nuw %"class.__gnu_cxx::__normal_iterator.361", ptr %3, i32 0, i32 0
  ret ptr %4
}

; Function Attrs: mustprogress nounwind uwtable
define linkonce_odr dso_local void @_ZN9__gnu_cxx17__normal_iteratorIPSt4pairINSt7__cxx1112basic_stringIcSt11char_traitsIcESaIcEEEPKN4Luau4TypeEESt6vectorISC_SaISC_EEEC2ERKSD_(ptr noundef nonnull align 8 dereferenceable(8) %0, ptr noundef nonnull align 8 dereferenceable(8) %1) unnamed_addr #2 comdat align 2 {
  %3 = alloca ptr, align 8
  %4 = alloca ptr, align 8
  store ptr %0, ptr %3, align 8, !tbaa !1012
  store ptr %1, ptr %4, align 8, !tbaa !857
  %5 = load ptr, ptr %3, align 8
  %6 = getelementptr inbounds nuw %"class.__gnu_cxx::__normal_iterator.361", ptr %5, i32 0, i32 0
  %7 = load ptr, ptr %4, align 8, !tbaa !857
  %8 = load ptr, ptr %7, align 8, !tbaa !852
  store ptr %8, ptr %6, align 8, !tbaa !1014
  ret void
}

; Function Attrs: mustprogress nounwind uwtable
define linkonce_odr dso_local noundef nonnull align 8 dereferenceable(8) ptr @_ZN9__gnu_cxx17__normal_iteratorIPSt4pairINSt7__cxx1112basic_stringIcSt11char_traitsIcESaIcEEEPKN4Luau4TypeEESt6vectorISC_SaISC_EEEppEv(ptr noundef nonnull align 8 dereferenceable(8) %0) #2 comdat align 2 {
  %2 = alloca ptr, align 8
  store ptr %0, ptr %2, align 8, !tbaa !1012
  %3 = load ptr, ptr %2, align 8
  %4 = getelementptr inbounds nuw %"class.__gnu_cxx::__normal_iterator.361", ptr %3, i32 0, i32 0
  %5 = load ptr, ptr %4, align 8, !tbaa !1014
  %6 = getelementptr inbounds nuw %"struct.std::pair.262", ptr %5, i32 1
  store ptr %6, ptr %4, align 8, !tbaa !1014
  ret ptr %3
}

; Function Attrs: mustprogress nounwind uwtable
define linkonce_odr dso_local noundef nonnull align 8 dereferenceable(8) ptr @_ZSt3getILm1ENSt7__cxx1112basic_stringIcSt11char_traitsIcESaIcEEEPKN4Luau4TypeEERNSt13tuple_elementIXT_ESt4pairIT0_T1_EE4typeERSE_(ptr noundef nonnull align 8 dereferenceable(40) %0) #2 comdat {
  %2 = alloca ptr, align 8
  store ptr %0, ptr %2, align 8, !tbaa !852
  %3 = load ptr, ptr %2, align 8, !tbaa !852
  %4 = call noundef nonnull align 8 dereferenceable(8) ptr @_ZNSt10__pair_getILm1EE5__getINSt7__cxx1112basic_stringIcSt11char_traitsIcESaIcEEEPKN4Luau4TypeEEERT0_RSt4pairIT_SC_E(ptr noundef nonnull align 8 dereferenceable(40) %3) #5
  ret ptr %4
}

; Function Attrs: mustprogress nounwind uwtable
define linkonce_odr dso_local noundef nonnull align 8 dereferenceable(32) ptr @_ZSt3getILm0ENSt7__cxx1112basic_stringIcSt11char_traitsIcESaIcEEEPKN4Luau4TypeEERNSt13tuple_elementIXT_ESt4pairIT0_T1_EE4typeERSE_(ptr noundef nonnull align 8 dereferenceable(40) %0) #2 comdat {
  %2 = alloca ptr, align 8
  store ptr %0, ptr %2, align 8, !tbaa !852
  %3 = load ptr, ptr %2, align 8, !tbaa !852
  %4 = call noundef nonnull align 8 dereferenceable(32) ptr @_ZNSt10__pair_getILm0EE5__getINSt7__cxx1112basic_stringIcSt11char_traitsIcESaIcEEEPKN4Luau4TypeEEERT_RSt4pairISC_T0_E(ptr noundef nonnull align 8 dereferenceable(40) %3) #5
  ret ptr %4
}

; Function Attrs: mustprogress nounwind uwtable
define linkonce_odr dso_local noundef nonnull align 8 dereferenceable(40) ptr @_ZNK9__gnu_cxx17__normal_iteratorIPSt4pairINSt7__cxx1112basic_stringIcSt11char_traitsIcESaIcEEEPKN4Luau4TypeEESt6vectorISC_SaISC_EEEdeEv(ptr noundef nonnull align 8 dereferenceable(8) %0) #2 comdat align 2 {
  %2 = alloca ptr, align 8
  store ptr %0, ptr %2, align 8, !tbaa !1012
  %3 = load ptr, ptr %2, align 8
  %4 = getelementptr inbounds nuw %"class.__gnu_cxx::__normal_iterator.361", ptr %3, i32 0, i32 0
  %5 = load ptr, ptr %4, align 8, !tbaa !1014
  ret ptr %5
}

; Function Attrs: inlinehint mustprogress nounwind uwtable
define linkonce_odr dso_local noundef zeroext i1 @_ZN9__gnu_cxxneIPSt4pairINSt7__cxx1112basic_stringIcSt11char_traitsIcESaIcEEEPKN4Luau4TypeEESt6vectorISC_SaISC_EEEEbRKNS_17__normal_iteratorIT_T0_EESM_(ptr noundef nonnull align 8 dereferenceable(8) %0, ptr noundef nonnull align 8 dereferenceable(8) %1) #4 comdat {
  %3 = alloca ptr, align 8
  %4 = alloca ptr, align 8
  store ptr %0, ptr %3, align 8, !tbaa !1012
  store ptr %1, ptr %4, align 8, !tbaa !1012
  %5 = load ptr, ptr %3, align 8, !tbaa !1012
  %6 = call noundef nonnull align 8 dereferenceable(8) ptr @_ZNK9__gnu_cxx17__normal_iteratorIPSt4pairINSt7__cxx1112basic_stringIcSt11char_traitsIcESaIcEEEPKN4Luau4TypeEESt6vectorISC_SaISC_EEE4baseEv(ptr noundef nonnull align 8 dereferenceable(8) %5) #5
  %7 = load ptr, ptr %6, align 8, !tbaa !852
  %8 = load ptr, ptr %4, align 8, !tbaa !1012
  %9 = call noundef nonnull align 8 dereferenceable(8) ptr @_ZNK9__gnu_cxx17__normal_iteratorIPSt4pairINSt7__cxx1112basic_stringIcSt11char_traitsIcESaIcEEEPKN4Luau4TypeEESt6vectorISC_SaISC_EEE4baseEv(ptr noundef nonnull align 8 dereferenceable(8) %8) #5
  %10 = load ptr, ptr %9, align 8, !tbaa !852
  %11 = icmp ne ptr %7, %10
  ret i1 %11
}

; Function Attrs: mustprogress nounwind uwtable
define linkonce_odr dso_local ptr @_ZNSt6vectorISt4pairINSt7__cxx1112basic_stringIcSt11char_traitsIcESaIcEEEPKN4Luau4TypeEESaISB_EE3endEv(ptr noundef nonnull align 8 dereferenceable(24) %0) #2 comdat align 2 {
  %2 = alloca %"class.__gnu_cxx::__normal_iterator.361", align 8
  %3 = alloca ptr, align 8
  store ptr %0, ptr %3, align 8, !tbaa !321
  %4 = load ptr, ptr %3, align 8
  %5 = getelementptr inbounds nuw %"struct.std::_Vector_base.90", ptr %4, i32 0, i32 0
  %6 = getelementptr inbounds nuw %"struct.std::_Vector_base<std::pair<std::__cxx11::basic_string<char>, const Luau::Type *>, std::allocator<std::pair<std::__cxx11::basic_string<char>, const Luau::Type *>>>::_Vector_impl_data", ptr %5, i32 0, i32 1
  call void @_ZN9__gnu_cxx17__normal_iteratorIPSt4pairINSt7__cxx1112basic_stringIcSt11char_traitsIcESaIcEEEPKN4Luau4TypeEESt6vectorISC_SaISC_EEEC2ERKSD_(ptr noundef nonnull align 8 dereferenceable(8) %2, ptr noundef nonnull align 8 dereferenceable(8) %6) #5
  %7 = getelementptr inbounds nuw %"class.__gnu_cxx::__normal_iterator.361", ptr %2, i32 0, i32 0
  %8 = load ptr, ptr %7, align 8
  ret ptr %8
}

; Function Attrs: mustprogress nounwind uwtable
define linkonce_odr dso_local ptr @_ZNSt6vectorISt4pairINSt7__cxx1112basic_stringIcSt11char_traitsIcESaIcEEEPKN4Luau4TypeEESaISB_EE5beginEv(ptr noundef nonnull align 8 dereferenceable(24) %0) #2 comdat align 2 {
  %2 = alloca %"class.__gnu_cxx::__normal_iterator.361", align 8
  %3 = alloca ptr, align 8
  store ptr %0, ptr %3, align 8, !tbaa !321
  %4 = load ptr, ptr %3, align 8
  %5 = getelementptr inbounds nuw %"struct.std::_Vector_base.90", ptr %4, i32 0, i32 0
  %6 = getelementptr inbounds nuw %"struct.std::_Vector_base<std::pair<std::__cxx11::basic_string<char>, const Luau::Type *>, std::allocator<std::pair<std::__cxx11::basic_string<char>, const Luau::Type *>>>::_Vector_impl_data", ptr %5, i32 0, i32 0
  call void @_ZN9__gnu_cxx17__normal_iteratorIPSt4pairINSt7__cxx1112basic_stringIcSt11char_traitsIcESaIcEEEPKN4Luau4TypeEESt6vectorISC_SaISC_EEEC2ERKSD_(ptr noundef nonnull align 8 dereferenceable(8) %2, ptr noundef nonnull align 8 dereferenceable(8) %6) #5
  %7 = getelementptr inbounds nuw %"class.__gnu_cxx::__normal_iterator.361", ptr %2, i32 0, i32 0
  %8 = load ptr, ptr %7, align 8
  ret ptr %8
}

; Function Attrs: inlinehint mustprogress uwtable
define linkonce_odr dso_local noundef ptr @_ZZN4Luau9copyErrorINS_37ExplicitFunctionAnnotationRecommendedEEEvRT_RNS_9TypeArenaERNS_10CloneStateEENKUlOS2_E_clIRPKNS_4TypeEEEDaS8_(ptr noundef nonnull align 8 dereferenceable(16) %0, ptr noundef nonnull align 8 dereferenceable(8) %1) #6 comdat align 2 {
  %3 = alloca ptr, align 8
  %4 = alloca ptr, align 8
  store ptr %0, ptr %3, align 8, !tbaa !233
  store ptr %1, ptr %4, align 8, !tbaa !737
  %5 = load ptr, ptr %3, align 8
  %6 = load ptr, ptr %4, align 8, !tbaa !737
  %7 = load ptr, ptr %6, align 8, !tbaa !62
  %8 = getelementptr inbounds nuw %class.anon.359, ptr %5, i32 0, i32 0
  %9 = load ptr, ptr %8, align 8, !tbaa !1009
  %10 = getelementptr inbounds nuw %class.anon.359, ptr %5, i32 0, i32 1
  %11 = load ptr, ptr %10, align 8, !tbaa !1011
  %12 = call noundef ptr @_ZN4Luau5cloneEPKNS_4TypeERNS_9TypeArenaERNS_10CloneStateE(ptr noundef %7, ptr noundef nonnull align 8 dereferenceable(88) %9, ptr noundef nonnull align 8 dereferenceable(120) %11)
  ret ptr %12
}

; Function Attrs: mustprogress uwtable
define linkonce_odr dso_local void @_ZN4Luau9copyErrorINS_37ExplicitFunctionAnnotationRecommendedEEEvRT_RNS_9TypeArenaERNS_10CloneStateE(ptr noundef nonnull align 8 dereferenceable(32) %0, ptr noundef nonnull align 8 dereferenceable(88) %1, ptr noundef nonnull align 8 dereferenceable(120) %2) #3 comdat {
  %4 = alloca ptr, align 8
  %5 = alloca ptr, align 8
  %6 = alloca ptr, align 8
  %7 = alloca %class.anon.359, align 8
  %8 = alloca %class.anon.360, align 8
  %9 = alloca ptr, align 8
  %10 = alloca %"class.__gnu_cxx::__normal_iterator.361", align 8
  %11 = alloca %"class.__gnu_cxx::__normal_iterator.361", align 8
  %12 = alloca ptr, align 8
  %13 = alloca ptr, align 8
  %14 = alloca ptr, align 8
  store ptr %0, ptr %4, align 8, !tbaa !312
  store ptr %1, ptr %5, align 8, !tbaa !378
  store ptr %2, ptr %6, align 8, !tbaa !383
  call void @llvm.lifetime.start.p0(i64 16, ptr %7) #5
  %15 = getelementptr inbounds nuw %class.anon.359, ptr %7, i32 0, i32 0
  %16 = load ptr, ptr %5, align 8, !tbaa !378
  store ptr %16, ptr %15, align 8, !tbaa !378
  %17 = getelementptr inbounds nuw %class.anon.359, ptr %7, i32 0, i32 1
  %18 = load ptr, ptr %6, align 8, !tbaa !383
  store ptr %18, ptr %17, align 8, !tbaa !383
  call void @llvm.lifetime.start.p0(i64 16, ptr %8) #5
  %19 = getelementptr inbounds nuw %class.anon.360, ptr %8, i32 0, i32 0
  %20 = load ptr, ptr %5, align 8, !tbaa !378
  store ptr %20, ptr %19, align 8, !tbaa !378
  %21 = getelementptr inbounds nuw %class.anon.360, ptr %8, i32 0, i32 1
  %22 = load ptr, ptr %6, align 8, !tbaa !383
  store ptr %22, ptr %21, align 8, !tbaa !383
  %23 = load ptr, ptr %4, align 8, !tbaa !312
  %24 = getelementptr inbounds nuw %"struct.Luau::ExplicitFunctionAnnotationRecommended", ptr %23, i32 0, i32 1
  %25 = call noundef ptr @_ZZN4Luau9copyErrorINS_37ExplicitFunctionAnnotationRecommendedEEEvRT_RNS_9TypeArenaERNS_10CloneStateEENKUlOS2_E_clIRPKNS_4TypeEEEDaS8_(ptr noundef nonnull align 8 dereferenceable(16) %7, ptr noundef nonnull align 8 dereferenceable(8) %24)
  %26 = load ptr, ptr %4, align 8, !tbaa !312
  %27 = getelementptr inbounds nuw %"struct.Luau::ExplicitFunctionAnnotationRecommended", ptr %26, i32 0, i32 1
  store ptr %25, ptr %27, align 8, !tbaa !314
  call void @llvm.lifetime.start.p0(i64 8, ptr %9) #5
  %28 = load ptr, ptr %4, align 8, !tbaa !312
  %29 = getelementptr inbounds nuw %"struct.Luau::ExplicitFunctionAnnotationRecommended", ptr %28, i32 0, i32 0
  store ptr %29, ptr %9, align 8, !tbaa !321
  call void @llvm.lifetime.start.p0(i64 8, ptr %10) #5
  %30 = load ptr, ptr %9, align 8, !tbaa !321
  %31 = call ptr @_ZNSt6vectorISt4pairINSt7__cxx1112basic_stringIcSt11char_traitsIcESaIcEEEPKN4Luau4TypeEESaISB_EE5beginEv(ptr noundef nonnull align 8 dereferenceable(24) %30) #5
  %32 = getelementptr inbounds nuw %"class.__gnu_cxx::__normal_iterator.361", ptr %10, i32 0, i32 0
  store ptr %31, ptr %32, align 8
  call void @llvm.lifetime.start.p0(i64 8, ptr %11) #5
  %33 = load ptr, ptr %9, align 8, !tbaa !321
  %34 = call ptr @_ZNSt6vectorISt4pairINSt7__cxx1112basic_stringIcSt11char_traitsIcESaIcEEEPKN4Luau4TypeEESaISB_EE3endEv(ptr noundef nonnull align 8 dereferenceable(24) %33) #5
  %35 = getelementptr inbounds nuw %"class.__gnu_cxx::__normal_iterator.361", ptr %11, i32 0, i32 0
  store ptr %34, ptr %35, align 8
  br label %36

36:                                               ; preds = %48, %3
  %37 = call noundef zeroext i1 @_ZN9__gnu_cxxneIPSt4pairINSt7__cxx1112basic_stringIcSt11char_traitsIcESaIcEEEPKN4Luau4TypeEESt6vectorISC_SaISC_EEEEbRKNS_17__normal_iteratorIT_T0_EESM_(ptr noundef nonnull align 8 dereferenceable(8) %10, ptr noundef nonnull align 8 dereferenceable(8) %11) #5
  br i1 %37, label %39, label %38

38:                                               ; preds = %36
  call void @llvm.lifetime.end.p0(i64 8, ptr %11) #5
  call void @llvm.lifetime.end.p0(i64 8, ptr %10) #5
  call void @llvm.lifetime.end.p0(i64 8, ptr %9) #5
  br label %50

39:                                               ; preds = %36
  call void @llvm.lifetime.start.p0(i64 8, ptr %12) #5
  %40 = call noundef nonnull align 8 dereferenceable(40) ptr @_ZNK9__gnu_cxx17__normal_iteratorIPSt4pairINSt7__cxx1112basic_stringIcSt11char_traitsIcESaIcEEEPKN4Luau4TypeEESt6vectorISC_SaISC_EEEdeEv(ptr noundef nonnull align 8 dereferenceable(8) %10) #5
  store ptr %40, ptr %12, align 8, !tbaa !852
  call void @llvm.lifetime.start.p0(i64 8, ptr %13) #5
  %41 = load ptr, ptr %12, align 8, !tbaa !852
  %42 = call noundef nonnull align 8 dereferenceable(32) ptr @_ZSt3getILm0ENSt7__cxx1112basic_stringIcSt11char_traitsIcESaIcEEEPKN4Luau4TypeEERNSt13tuple_elementIXT_ESt4pairIT0_T1_EE4typeERSE_(ptr noundef nonnull align 8 dereferenceable(40) %41) #5
  store ptr %42, ptr %13, align 8, !tbaa !50
  call void @llvm.lifetime.start.p0(i64 8, ptr %14) #5
  %43 = load ptr, ptr %12, align 8, !tbaa !852
  %44 = call noundef nonnull align 8 dereferenceable(8) ptr @_ZSt3getILm1ENSt7__cxx1112basic_stringIcSt11char_traitsIcESaIcEEEPKN4Luau4TypeEERNSt13tuple_elementIXT_ESt4pairIT0_T1_EE4typeERSE_(ptr noundef nonnull align 8 dereferenceable(40) %43) #5
  store ptr %44, ptr %14, align 8, !tbaa !737
  %45 = load ptr, ptr %14, align 8, !tbaa !737
  %46 = call noundef ptr @_ZZN4Luau9copyErrorINS_37ExplicitFunctionAnnotationRecommendedEEEvRT_RNS_9TypeArenaERNS_10CloneStateEENKUlOS2_E_clIRPKNS_4TypeEEEDaS8_(ptr noundef nonnull align 8 dereferenceable(16) %7, ptr noundef nonnull align 8 dereferenceable(8) %45)
  %47 = load ptr, ptr %14, align 8, !tbaa !737
  store ptr %46, ptr %47, align 8, !tbaa !62
  call void @llvm.lifetime.end.p0(i64 8, ptr %14) #5
  call void @llvm.lifetime.end.p0(i64 8, ptr %13) #5
  call void @llvm.lifetime.end.p0(i64 8, ptr %12) #5
  br label %48

48:                                               ; preds = %39
  %49 = call noundef nonnull align 8 dereferenceable(8) ptr @_ZN9__gnu_cxx17__normal_iteratorIPSt4pairINSt7__cxx1112basic_stringIcSt11char_traitsIcESaIcEEEPKN4Luau4TypeEESt6vectorISC_SaISC_EEEppEv(ptr noundef nonnull align 8 dereferenceable(8) %10) #5
  br label %36

50:                                               ; preds = %38
  call void @llvm.lifetime.end.p0(i64 16, ptr %8) #5
  call void @llvm.lifetime.end.p0(i64 16, ptr %7) #5
  ret void
}

; Function Attrs: inlinehint mustprogress uwtable
define internal void @"_ZZN4Luau10copyErrorsERSt6vectorINS_9TypeErrorESaIS1_EERNS_9TypeArenaENS_7NotNullINS_12BuiltinTypesEEEENK3$_0clIRNS_37ExplicitFunctionAnnotationRecommendedEEEDaOT_"(ptr noundef nonnull align 8 dereferenceable(16) %0, ptr noundef nonnull align 8 dereferenceable(32) %1) #6 align 2 {
  %3 = alloca ptr, align 8
  %4 = alloca ptr, align 8
  store ptr %0, ptr %3, align 8, !tbaa !233
  store ptr %1, ptr %4, align 8, !tbaa !312
  %5 = load ptr, ptr %3, align 8
  %6 = load ptr, ptr %4, align 8, !tbaa !312
  %7 = getelementptr inbounds nuw %class.anon, ptr %5, i32 0, i32 0
  %8 = load ptr, ptr %7, align 8, !tbaa !899
  %9 = getelementptr inbounds nuw %class.anon, ptr %5, i32 0, i32 1
  %10 = load ptr, ptr %9, align 8, !tbaa !901
  call void @_ZN4Luau9copyErrorINS_37ExplicitFunctionAnnotationRecommendedEEEvRT_RNS_9TypeArenaERNS_10CloneStateE(ptr noundef nonnull align 8 dereferenceable(32) %6, ptr noundef nonnull align 8 dereferenceable(88) %8, ptr noundef nonnull align 8 dereferenceable(120) %10)
  ret void
}

; Function Attrs: mustprogress uwtable
define internal void @"_ZN4LuauL8fnVisitVIRZNS_10copyErrorsERSt6vectorINS_9TypeErrorESaIS2_EERNS_9TypeArenaENS_7NotNullINS_12BuiltinTypesEEEE3$_0NS_37ExplicitFunctionAnnotationRecommendedEEEvRT_PNSt11conditionalIXsr3stdE10is_const_vIT0_EEKvvE4typeE"(ptr noundef nonnull align 8 dereferenceable(16) %0, ptr noundef %1) #3 {
  %3 = alloca ptr, align 8
  %4 = alloca ptr, align 8
  store ptr %0, ptr %3, align 8, !tbaa !233
  store ptr %1, ptr %4, align 8, !tbaa !233
  %5 = load ptr, ptr %3, align 8, !tbaa !233
  %6 = load ptr, ptr %4, align 8, !tbaa !233
  call void @"_ZZN4Luau10copyErrorsERSt6vectorINS_9TypeErrorESaIS1_EERNS_9TypeArenaENS_7NotNullINS_12BuiltinTypesEEEENK3$_0clIRNS_37ExplicitFunctionAnnotationRecommendedEEEDaOT_"(ptr noundef nonnull align 8 dereferenceable(16) %5, ptr noundef nonnull align 8 dereferenceable(32) %6)
  ret void
}