; Function Attrs: mustprogress uwtable
define internal void @"_ZN4LuauL8fnVisitVIRZNS_10copyErrorsERSt6vectorINS_9TypeErrorESaIS2_EERNS_9TypeArenaENS_7NotNullINS_12BuiltinTypesEEEE3$_0NS_37ExplicitFunctionAnnotationRecommendedEEEvRT_PNSt11conditionalIXsr3stdE10is_const_vIT0_EEKvvE4typeE"(ptr noundef nonnull readonly align 8 captures(none) dereferenceable(16) %0, ptr noundef captures(none) %1) #5 {
  %.val = load ptr, ptr %0, align 8, !tbaa !1029
  %3 = getelementptr inbounds nuw i8, ptr %0, i64 8
  %.val2 = load ptr, ptr %3, align 8, !tbaa !1031
  %4 = getelementptr inbounds nuw i8, ptr %1, i64 24
  %5 = load ptr, ptr %4, align 8, !tbaa !182
  %6 = tail call noundef ptr @_ZN4Luau5cloneEPKNS_4TypeERNS_9TypeArenaERNS_10CloneStateE(ptr noundef %5, ptr noundef nonnull align 8 dereferenceable(88) %.val, ptr noundef nonnull align 8 dereferenceable(120) %.val2)
  store ptr %6, ptr %4, align 8, !tbaa !197
  %7 = load ptr, ptr %1, align 8, !tbaa !1011
  %8 = getelementptr inbounds nuw i8, ptr %1, i64 8
  %9 = load ptr, ptr %8, align 8, !tbaa !1011
  %.not19.i.i = icmp eq ptr %7, %9
  br i1 %.not19.i.i, label %"_ZZN4Luau10copyErrorsERSt6vectorINS_9TypeErrorESaIS1_EERNS_9TypeArenaENS_7NotNullINS_12BuiltinTypesEEEENK3$_0clIRNS_37ExplicitFunctionAnnotationRecommendedEEEDaOT_.exit", label %.lr.ph.i.i

.lr.ph.i.i:                                       ; preds = %2, %.lr.ph.i.i
  %.sroa.013.020.i.i = phi ptr [ %13, %.lr.ph.i.i ], [ %7, %2 ]
  %10 = getelementptr inbounds nuw i8, ptr %.sroa.013.020.i.i, i64 32
  %11 = load ptr, ptr %10, align 8, !tbaa !182
  %12 = tail call noundef ptr @_ZN4Luau5cloneEPKNS_4TypeERNS_9TypeArenaERNS_10CloneStateE(ptr noundef %11, ptr noundef nonnull align 8 dereferenceable(88) %.val, ptr noundef nonnull align 8 dereferenceable(120) %.val2)
  store ptr %12, ptr %10, align 8, !tbaa !182
  %13 = getelementptr inbounds nuw i8, ptr %.sroa.013.020.i.i, i64 40
  %.not.i.i = icmp eq ptr %13, %9
  br i1 %.not.i.i, label %"_ZZN4Luau10copyErrorsERSt6vectorINS_9TypeErrorESaIS1_EERNS_9TypeArenaENS_7NotNullINS_12BuiltinTypesEEEENK3$_0clIRNS_37ExplicitFunctionAnnotationRecommendedEEEDaOT_.exit", label %.lr.ph.i.i

"_ZZN4Luau10copyErrorsERSt6vectorINS_9TypeErrorESaIS1_EERNS_9TypeArenaENS_7NotNullINS_12BuiltinTypesEEEENK3$_0clIRNS_37ExplicitFunctionAnnotationRecommendedEEEDaOT_.exit": ; preds = %.lr.ph.i.i, %2
  ret void
}